; Function Attrs: nounwind uwtable
define internal fastcc void @_jumbleAlterOpFamilyStmt(ptr noundef %0, ptr noundef nonnull readonly captures(none) %1) unnamed_addr #0 {
  %3 = getelementptr inbounds nuw i8, ptr %1, i64 8
  %4 = load ptr, ptr %3, align 8
  tail call fastcc void @_jumbleNode(ptr noundef %0, ptr noundef %4)
  %5 = getelementptr inbounds nuw i8, ptr %1, i64 16
  %6 = load ptr, ptr %5, align 8
  %.not = icmp eq ptr %6, null
  %.pre21 = load ptr, ptr %0, align 8
  br i1 %.not, label %._crit_edge, label %7

._crit_edge:                                      ; preds = %2
  %.phi.trans.insert = getelementptr inbounds nuw i8, ptr %0, i64 8
  %.pre22 = load i64, ptr %.phi.trans.insert, align 8
  br label %22

7:                                                ; preds = %2
  %8 = tail call i64 @strlen(ptr noundef nonnull dereferenceable(1) %6) #8
  %9 = add i64 %8, 1
  %10 = getelementptr inbounds nuw i8, ptr %0, i64 8
  %11 = load i64, ptr %10, align 8
  %.not23.i = icmp eq i64 %9, 0
  br i1 %.not23.i, label %AppendJumble.exit, label %.lr.ph.i

.lr.ph.i:                                         ; preds = %7, %15
  %.026.i = phi ptr [ %20, %15 ], [ %6, %7 ]
  %.02125.i = phi i64 [ %21, %15 ], [ %9, %7 ]
  %.02224.i = phi i64 [ %19, %15 ], [ %11, %7 ]
  %12 = icmp ugt i64 %.02224.i, 1023
  br i1 %12, label %13, label %15

13:                                               ; preds = %.lr.ph.i
  %14 = tail call i64 @hash_bytes_extended(ptr noundef %.pre21, i32 noundef 1024, i64 noundef 0) #9
  store i64 %14, ptr %.pre21, align 1
  br label %15

15:                                               ; preds = %13, %.lr.ph.i
  %.1.i = phi i64 [ 8, %13 ], [ %.02224.i, %.lr.ph.i ]
  %16 = sub nuw nsw i64 1024, %.1.i
  %17 = tail call i64 @llvm.umin.i64(i64 %.02125.i, i64 %16)
  %18 = getelementptr inbounds nuw i8, ptr %.pre21, i64 %.1.i
  tail call void @llvm.memcpy.p0.p0.i64(ptr noundef nonnull align 1 dereferenceable(1) %18, ptr noundef nonnull align 1 dereferenceable(1) %.026.i, i64 %17, i1 false)
  %19 = add nuw nsw i64 %17, %.1.i
  %20 = getelementptr inbounds nuw i8, ptr %.026.i, i64 %17
  %21 = sub i64 %.02125.i, %17
  %.not.i = icmp eq i64 %21, 0
  br i1 %.not.i, label %AppendJumble.exit.loopexit, label %.lr.ph.i, !llvm.loop !7

AppendJumble.exit.loopexit:                       ; preds = %15
  %.pre.pre = load ptr, ptr %0, align 8
  br label %AppendJumble.exit

AppendJumble.exit:                                ; preds = %AppendJumble.exit.loopexit, %7
  %.pre = phi ptr [ %.pre21, %7 ], [ %.pre.pre, %AppendJumble.exit.loopexit ]
  %.022.lcssa.i = phi i64 [ %11, %7 ], [ %19, %AppendJumble.exit.loopexit ]
  store i64 %.022.lcssa.i, ptr %10, align 8
  br label %22

22:                                               ; preds = %._crit_edge, %AppendJumble.exit
  %23 = phi i64 [ %.022.lcssa.i, %AppendJumble.exit ], [ %.pre22, %._crit_edge ]
  %24 = phi ptr [ %.pre, %AppendJumble.exit ], [ %.pre21, %._crit_edge ]
  %25 = getelementptr inbounds nuw i8, ptr %1, i64 24
  br label %.lr.ph.i11

.lr.ph.i11:                                       ; preds = %29, %22
  %.026.i12 = phi ptr [ %34, %29 ], [ %25, %22 ]
  %.02125.i13 = phi i64 [ %35, %29 ], [ 1, %22 ]
  %.02224.i14 = phi i64 [ %33, %29 ], [ %23, %22 ]
  %26 = icmp ugt i64 %.02224.i14, 1023
  br i1 %26, label %27, label %29

27:                                               ; preds = %.lr.ph.i11
  %28 = tail call i64 @hash_bytes_extended(ptr noundef %24, i32 noundef 1024, i64 noundef 0) #9
  store i64 %28, ptr %24, align 1
  br label %29

29:                                               ; preds = %27, %.lr.ph.i11
  %.1.i15 = phi i64 [ 8, %27 ], [ %.02224.i14, %.lr.ph.i11 ]
  %30 = sub nuw nsw i64 1024, %.1.i15
  %31 = tail call i64 @llvm.umin.i64(i64 %.02125.i13, i64 %30)
  %32 = getelementptr inbounds nuw i8, ptr %24, i64 %.1.i15
  tail call void @llvm.memcpy.p0.p0.i64(ptr noundef nonnull align 1 dereferenceable(1) %32, ptr noundef nonnull align 1 dereferenceable(1) %.026.i12, i64 %31, i1 false)
  %33 = add nuw nsw i64 %31, %.1.i15
  %34 = getelementptr inbounds nuw i8, ptr %.026.i12, i64 %31
  %35 = sub i64 %.02125.i13, %31
  %.not.i16 = icmp eq i64 %35, 0
  br i1 %.not.i16, label %AppendJumble.exit18, label %.lr.ph.i11, !llvm.loop !7

AppendJumble.exit18:                              ; preds = %29
  %36 = getelementptr inbounds nuw i8, ptr %0, i64 8
  store i64 %33, ptr %36, align 8
  %37 = getelementptr inbounds nuw i8, ptr %1, i64 32
  %38 = load ptr, ptr %37, align 8
  tail call fastcc void @_jumbleNode(ptr noundef nonnull %0, ptr noundef %38)
  ret void
}